; Function Attrs: nounwind uwtable
define i32 @dissect_dcom_PMInterfacePointer(ptr noundef %0, i32 noundef %1, ptr noundef %2, ptr noundef %3, ptr noundef %4, ptr noundef %5, i32 noundef %6, ptr noundef %7) local_unnamed_addr #1 {
  %9 = alloca i32, align 4
  %10 = alloca i32, align 4
  %11 = alloca i32, align 4
  %12 = load i32, ptr @dcom_prefs_display_unmarshalling_details, align 4
  %.not.i = icmp eq i32 %12, 0
  %spec.select.i = select i1 %.not.i, ptr null, ptr %3
  %13 = load i32, ptr @hf_dcom_pointer_val, align 4
  %14 = call i32 @dissect_ndr_uint32(ptr noundef %0, i32 noundef %1, ptr noundef %2, ptr noundef %spec.select.i, ptr noundef %4, ptr noundef %5, i32 noundef %13, ptr noundef nonnull %11) #11
  %15 = load i32, ptr %11, align 4
  %.not = icmp eq i32 %15, 0
  br i1 %.not, label %28, label %16

16:                                               ; preds = %8
  call void @llvm.lifetime.start.p0(i64 4, ptr nonnull %9)
  call void @llvm.lifetime.start.p0(i64 4, ptr nonnull %10)
  %.not.i18 = icmp eq i32 %6, 0
  %17 = load i32, ptr @hf_dcom_interface_pointer, align 4
  %spec.select.i19 = select i1 %.not.i18, i32 %17, i32 %6
  %18 = call ptr @proto_tree_add_item(ptr noundef %3, i32 noundef %spec.select.i19, ptr noundef %0, i32 noundef %14, i32 noundef 0, i32 noundef 0) #11
  %19 = load i32, ptr @ett_dcom_interface_pointer, align 4
  %20 = call ptr @proto_item_add_subtree(ptr noundef %18, i32 noundef %19) #11
  %21 = load i32, ptr @dcom_prefs_display_unmarshalling_details, align 4
  %.not.i.i = icmp eq i32 %21, 0
  %spec.select.i.i = select i1 %.not.i.i, ptr null, ptr %20
  %22 = load i32, ptr @hf_dcom_array_size, align 4
  %23 = call i32 @dissect_ndr_uint32(ptr noundef %0, i32 noundef %14, ptr noundef %2, ptr noundef %spec.select.i.i, ptr noundef %4, ptr noundef %5, i32 noundef %22, ptr noundef nonnull %10) #11
  %24 = load i32, ptr @hf_dcom_ip_cnt_data, align 4
  %25 = call i32 @dissect_ndr_uint32(ptr noundef %0, i32 noundef %23, ptr noundef %2, ptr noundef %20, ptr noundef %4, ptr noundef %5, i32 noundef %24, ptr noundef nonnull %9) #11
  %26 = call i32 @dissect_dcom_OBJREF(ptr noundef %0, i32 noundef %25, ptr noundef %2, ptr noundef %20, ptr noundef %4, ptr noundef %5, i32 poison, ptr noundef %7)
  %reass.sub = sub i32 %26, %23
  %27 = add i32 %reass.sub, 4
  call void @proto_item_set_len(ptr noundef %18, i32 noundef %27) #11
  call void @llvm.lifetime.end.p0(i64 4, ptr nonnull %9)
  call void @llvm.lifetime.end.p0(i64 4, ptr nonnull %10)
  br label %30

28:                                               ; preds = %8
  %.not17 = icmp eq ptr %7, null
  br i1 %.not17, label %30, label %29

29:                                               ; preds = %28
  store ptr null, ptr %7, align 8
  br label %30

30:                                               ; preds = %28, %29, %16
  %.0 = phi i32 [ %26, %16 ], [ %14, %29 ], [ %14, %28 ]
  ret i32 %.0
}